; Function Attrs: mustprogress nofree norecurse nosync nounwind willreturn memory(argmem: read) uwtable
define range(i32 0, 2) i32 @fstReaderGetDoubleEndianMatchState(ptr noundef readonly captures(address_is_null) %0) local_unnamed_addr #20 {
  %.not = icmp eq ptr %0, null
  br i1 %.not, label %8, label %2

2:                                                ; preds = %1
  %3 = getelementptr inbounds nuw i8, ptr %0, i64 122
  %4 = load i8, ptr %3, align 2
  %5 = lshr i8 %4, 1
  %6 = and i8 %5, 1
  %7 = zext nneg i8 %6 to i32
  br label %8

8:                                                ; preds = %1, %2
  %9 = phi i32 [ %7, %2 ], [ 0, %1 ]
  ret i32 %9
}